; Function Attrs: mustprogress null_pointer_is_valid sspstrong uwtable
define void @_ZN13IOGraphDialog16modelDataChangedERK11QModelIndexS2_RK5QListIiE(ptr noundef align 8 dereferenceable_or_null(384) %0, ptr noundef readonly align 8 captures(none) dereferenceable(24) %1, ptr noundef readonly align 8 captures(none) dereferenceable(24) %2, ptr readnone align 8 captures(none) %3) #2 align 2 {
  %5 = getelementptr inbounds nuw i8, ptr %1, i64 4
  %6 = load i32, ptr %5, align 4
  %7 = getelementptr inbounds nuw i8, ptr %2, i64 4
  %8 = load i32, ptr %7, align 4
  %.not14 = icmp sgt i32 %6, %8
  br i1 %.not14, label %._crit_edge, label %.lr.ph

._crit_edge:                                      ; preds = %12, %4
  %.012.lcssa = phi i1 [ false, %4 ], [ %.1, %12 ]
  %9 = load i32, ptr %1, align 8
  %10 = load i32, ptr %2, align 8
  %.not1317 = icmp sgt i32 %9, %10
  br i1 %.not1317, label %._crit_edge21, label %.lr.ph20

.lr.ph:                                           ; preds = %4, %12
  %.01116 = phi i32 [ %13, %12 ], [ %6, %4 ]
  %.01215 = phi i1 [ %.1, %12 ], [ false, %4 ]
  switch i32 %.01116, label %12 [
    i32 5, label %11
    i32 7, label %11
    i32 8, label %11
  ]

11:                                               ; preds = %.lr.ph, %.lr.ph, %.lr.ph
  br label %12

12:                                               ; preds = %.lr.ph, %11
  %.1 = phi i1 [ %.01215, %.lr.ph ], [ true, %11 ]
  %13 = add i32 %.01116, 1
  %.not = icmp sgt i32 %13, %8
  br i1 %.not, label %._crit_edge, label %.lr.ph, !llvm.loop !203

._crit_edge21:                                    ; preds = %.lr.ph20, %._crit_edge
  br i1 %.012.lcssa, label %16, label %18

.lr.ph20:                                         ; preds = %._crit_edge, %.lr.ph20
  %.018 = phi i32 [ %14, %.lr.ph20 ], [ %9, %._crit_edge ]
  tail call void @_ZN13IOGraphDialog17syncGraphSettingsEi(ptr noundef align 8 dereferenceable_or_null(384) %0, i32 noundef %.018)
  %14 = add i32 %.018, 1
  %15 = load i32, ptr %2, align 8
  %.not13 = icmp sgt i32 %14, %15
  br i1 %.not13, label %._crit_edge21, label %.lr.ph20, !llvm.loop !204

16:                                               ; preds = %._crit_edge21
  %17 = getelementptr inbounds nuw i8, ptr %0, i64 345
  store i8 1, ptr %17, align 1
  br label %20

18:                                               ; preds = %._crit_edge21
  %19 = getelementptr inbounds nuw i8, ptr %0, i64 344
  store i8 1, ptr %19, align 8
  br label %20

20:                                               ; preds = %18, %16
  tail call void @_ZN13IOGraphDialog16updateStatisticsEv(ptr noundef align 8 dereferenceable_or_null(384) %0)
  ret void
}